; Function Attrs: mustprogress uwtable
define hidden void @_ZN7datalog25mk_separate_negated_tails16get_private_varsERKNS_4ruleEj(ptr noundef nonnull align 8 dereferenceable(96) %0, ptr noundef nonnull readonly align 8 captures(none) dereferenceable(80) %1, i32 noundef %2) local_unnamed_addr #3 align 2 {
  %4 = getelementptr inbounds nuw i8, ptr %0, i64 48
  %5 = load ptr, ptr %4, align 8, !tbaa !214
  %.not.i = icmp eq ptr %5, null
  br i1 %.not.i, label %_ZN6vectorIP4exprLb0EjE5resetEv.exit, label %6

6:                                                ; preds = %3
  %7 = getelementptr inbounds i8, ptr %5, i64 -4
  store i32 0, ptr %7, align 4, !tbaa !221
  br label %_ZN6vectorIP4exprLb0EjE5resetEv.exit

_ZN6vectorIP4exprLb0EjE5resetEv.exit:             ; preds = %3, %6
  %8 = getelementptr inbounds nuw i8, ptr %0, i64 56
  tail call void @_ZN14expr_free_vars5resetEv(ptr noundef nonnull align 8 dereferenceable(40) %8)
  %9 = getelementptr inbounds nuw i8, ptr %1, i64 40
  %10 = load ptr, ptr %9, align 8, !tbaa !222
  tail call void @_ZN14expr_free_varsclEP4expr(ptr noundef nonnull align 8 dereferenceable(40) %8, ptr noundef %10)
  %11 = getelementptr inbounds nuw i8, ptr %1, i64 56
  %12 = load i32, ptr %11, align 8, !tbaa !226
  %.not24 = icmp eq i32 %12, 0
  br i1 %.not24, label %_ZN6vectorIP4exprLb0EjE5resetEv.exit.._crit_edge_crit_edge, label %.lr.ph

_ZN6vectorIP4exprLb0EjE5resetEv.exit.._crit_edge_crit_edge: ; preds = %_ZN6vectorIP4exprLb0EjE5resetEv.exit
  %.pre31 = zext i32 %2 to i64
  br label %._crit_edge

.lr.ph:                                           ; preds = %_ZN6vectorIP4exprLb0EjE5resetEv.exit
  %13 = getelementptr inbounds nuw i8, ptr %1, i64 80
  %14 = zext i32 %2 to i64
  br label %25

._crit_edge:                                      ; preds = %33, %_ZN6vectorIP4exprLb0EjE5resetEv.exit.._crit_edge_crit_edge
  %.pre-phi = phi i64 [ %.pre31, %_ZN6vectorIP4exprLb0EjE5resetEv.exit.._crit_edge_crit_edge ], [ %14, %33 ]
  %15 = getelementptr inbounds nuw i8, ptr %1, i64 80
  %16 = getelementptr inbounds nuw [0 x ptr], ptr %15, i64 0, i64 %.pre-phi
  %17 = load ptr, ptr %16, align 8, !tbaa !227
  %18 = ptrtoint ptr %17 to i64
  %19 = and i64 %18, -8
  %20 = inttoptr i64 %19 to ptr
  %21 = getelementptr inbounds nuw i8, ptr %20, i64 24
  %22 = load i32, ptr %21, align 8, !tbaa !228
  %.not25 = icmp eq i32 %22, 0
  br i1 %.not25, label %._crit_edge23, label %.lr.ph22

.lr.ph22:                                         ; preds = %._crit_edge
  %23 = getelementptr inbounds nuw i8, ptr %20, i64 32
  %24 = getelementptr inbounds nuw i8, ptr %0, i64 80
  br label %37

25:                                               ; preds = %.lr.ph, %33
  %26 = phi i32 [ %12, %.lr.ph ], [ %34, %33 ]
  %indvars.iv = phi i64 [ 0, %.lr.ph ], [ %indvars.iv.next, %33 ]
  %.not = icmp eq i64 %indvars.iv, %14
  br i1 %.not, label %33, label %27

27:                                               ; preds = %25
  %28 = getelementptr inbounds nuw [0 x ptr], ptr %13, i64 0, i64 %indvars.iv
  %29 = load ptr, ptr %28, align 8, !tbaa !227
  %30 = ptrtoint ptr %29 to i64
  %31 = and i64 %30, -8
  %32 = inttoptr i64 %31 to ptr
  tail call void @_ZN14expr_free_vars10accumulateEP4expr(ptr noundef nonnull align 8 dereferenceable(40) %8, ptr noundef %32)
  %.pre = load i32, ptr %11, align 8, !tbaa !226
  br label %33

33:                                               ; preds = %25, %27
  %34 = phi i32 [ %26, %25 ], [ %.pre, %27 ]
  %indvars.iv.next = add nuw nsw i64 %indvars.iv, 1
  %35 = zext i32 %34 to i64
  %36 = icmp samesign ult i64 %indvars.iv.next, %35
  br i1 %36, label %25, label %._crit_edge, !llvm.loop !233

._crit_edge23:                                    ; preds = %71, %._crit_edge
  ret void

37:                                               ; preds = %.lr.ph22, %71
  %38 = phi i32 [ %22, %.lr.ph22 ], [ %72, %71 ]
  %indvars.iv27 = phi i64 [ 0, %.lr.ph22 ], [ %indvars.iv.next28, %71 ]
  %39 = getelementptr inbounds nuw [0 x ptr], ptr %23, i64 0, i64 %indvars.iv27
  %40 = load ptr, ptr %39, align 8, !tbaa !235
  %41 = getelementptr inbounds nuw i8, ptr %40, i64 4
  %42 = load i32, ptr %41, align 4
  %43 = and i32 %42, 65535
  %44 = icmp eq i32 %43, 1
  br i1 %44, label %45, label %71

45:                                               ; preds = %37
  %46 = getelementptr inbounds nuw i8, ptr %40, i64 16
  %47 = load i32, ptr %46, align 8, !tbaa !236
  %48 = load ptr, ptr %24, align 8, !tbaa !239
  %49 = icmp eq ptr %48, null
  br i1 %49, label %_ZNK14expr_free_vars8containsEj.exit.thread, label %_ZNK6vectorIP4sortLb0EjE4sizeEv.exit.i

_ZNK6vectorIP4sortLb0EjE4sizeEv.exit.i:           ; preds = %45
  %50 = getelementptr inbounds i8, ptr %48, i64 -4
  %51 = load i32, ptr %50, align 4, !tbaa !221
  %52 = icmp ult i32 %47, %51
  br i1 %52, label %_ZNK14expr_free_vars8containsEj.exit, label %_ZNK14expr_free_vars8containsEj.exit.thread

_ZNK14expr_free_vars8containsEj.exit:             ; preds = %_ZNK6vectorIP4sortLb0EjE4sizeEv.exit.i
  %53 = zext i32 %47 to i64
  %54 = getelementptr inbounds nuw ptr, ptr %48, i64 %53
  %55 = load ptr, ptr %54, align 8, !tbaa !240
  %.not18 = icmp eq ptr %55, null
  br i1 %.not18, label %_ZNK14expr_free_vars8containsEj.exit.thread, label %71

_ZNK14expr_free_vars8containsEj.exit.thread:      ; preds = %45, %_ZNK6vectorIP4sortLb0EjE4sizeEv.exit.i, %_ZNK14expr_free_vars8containsEj.exit
  %56 = load ptr, ptr %4, align 8, !tbaa !214
  %57 = icmp eq ptr %56, null
  br i1 %57, label %64, label %58

58:                                               ; preds = %_ZNK14expr_free_vars8containsEj.exit.thread
  %59 = getelementptr inbounds i8, ptr %56, i64 -4
  %60 = load i32, ptr %59, align 4, !tbaa !221
  %61 = getelementptr inbounds i8, ptr %56, i64 -8
  %62 = load i32, ptr %61, align 4, !tbaa !221
  %63 = icmp eq i32 %60, %62
  br i1 %63, label %64, label %_ZN6vectorIP4exprLb0EjE9push_backERKS1_.exit

64:                                               ; preds = %58, %_ZNK14expr_free_vars8containsEj.exit.thread
  tail call void @_ZN6vectorIP4exprLb0EjE13expand_vectorEv(ptr noundef nonnull align 8 dereferenceable(8) %4)
  %.pre.i = load ptr, ptr %4, align 8, !tbaa !214
  %.phi.trans.insert.i = getelementptr inbounds i8, ptr %.pre.i, i64 -4
  %.pre2.i = load i32, ptr %.phi.trans.insert.i, align 4, !tbaa !221
  br label %_ZN6vectorIP4exprLb0EjE9push_backERKS1_.exit

_ZN6vectorIP4exprLb0EjE9push_backERKS1_.exit:     ; preds = %58, %64
  %65 = phi i32 [ %.pre2.i, %64 ], [ %60, %58 ]
  %66 = phi ptr [ %.pre.i, %64 ], [ %56, %58 ]
  %67 = getelementptr inbounds i8, ptr %66, i64 -4
  %68 = zext i32 %65 to i64
  %69 = getelementptr inbounds nuw ptr, ptr %66, i64 %68
  store ptr %40, ptr %69, align 8, !tbaa !235
  %70 = add i32 %65, 1
  store i32 %70, ptr %67, align 4, !tbaa !221
  %.pre30 = load i32, ptr %21, align 8, !tbaa !228
  br label %71

71:                                               ; preds = %_ZNK14expr_free_vars8containsEj.exit, %_ZN6vectorIP4exprLb0EjE9push_backERKS1_.exit, %37
  %72 = phi i32 [ %38, %_ZNK14expr_free_vars8containsEj.exit ], [ %.pre30, %_ZN6vectorIP4exprLb0EjE9push_backERKS1_.exit ], [ %38, %37 ]
  %indvars.iv.next28 = add nuw nsw i64 %indvars.iv27, 1
  %73 = zext i32 %72 to i64
  %74 = icmp samesign ult i64 %indvars.iv.next28, %73
  br i1 %74, label %37, label %._crit_edge23, !llvm.loop !241
}